; Function Attrs: nofree norecurse nosync nounwind memory(read, argmem: readwrite, inaccessiblemem: none) uwtable
define internal fastcc i32 @kth_order_egk_decode(ptr noundef captures(none) %0, i32 noundef range(i32 0, 6) %1) unnamed_addr #4 {
  %3 = getelementptr inbounds nuw i8, ptr %0, i64 4
  %4 = load i32, ptr %3, align 4, !tbaa !100
  %5 = shl i32 %4, 17
  %.promoted = load i32, ptr %0, align 8, !tbaa !70
  %6 = getelementptr inbounds nuw i8, ptr %0, i64 16
  %7 = getelementptr inbounds nuw i8, ptr %0, i64 24
  br label %8

8:                                                ; preds = %get_cabac_bypass.exit, %2
  %.01424 = phi i32 [ 0, %2 ], [ %33, %get_cabac_bypass.exit ]
  %.01623 = phi i32 [ %1, %2 ], [ %31, %get_cabac_bypass.exit ]
  %9 = phi i32 [ %.promoted, %2 ], [ %30, %get_cabac_bypass.exit ]
  %10 = shl nsw i32 %9, 1
  store i32 %10, ptr %0, align 8, !tbaa !70
  %11 = and i32 %9, 32767
  %.not.i = icmp eq i32 %11, 0
  br i1 %.not.i, label %12, label %refill.exit.i

12:                                               ; preds = %8
  %13 = load ptr, ptr %6, align 8, !tbaa !68
  %14 = load i8, ptr %13, align 1, !tbaa !97
  %15 = zext i8 %14 to i32
  %16 = shl nuw nsw i32 %15, 9
  %17 = getelementptr inbounds nuw i8, ptr %13, i64 1
  %18 = load i8, ptr %17, align 1, !tbaa !97
  %19 = zext i8 %18 to i32
  %20 = shl nuw nsw i32 %19, 1
  %21 = or disjoint i32 %20, %16
  %22 = add i32 %10, -65535
  %23 = add i32 %22, %21
  store i32 %23, ptr %0, align 8, !tbaa !70
  %24 = load ptr, ptr %7, align 8, !tbaa !71
  %25 = icmp ult ptr %13, %24
  br i1 %25, label %26, label %refill.exit.i

26:                                               ; preds = %12
  %27 = getelementptr inbounds nuw i8, ptr %13, i64 2
  store ptr %27, ptr %6, align 8, !tbaa !68
  br label %refill.exit.i

refill.exit.i:                                    ; preds = %26, %12, %8
  %28 = phi i32 [ %23, %26 ], [ %23, %12 ], [ %10, %8 ]
  %29 = icmp slt i32 %28, %5
  br i1 %29, label %34, label %get_cabac_bypass.exit

get_cabac_bypass.exit:                            ; preds = %refill.exit.i
  %30 = sub nsw i32 %28, %5
  store i32 %30, ptr %0, align 8, !tbaa !70
  %31 = add nuw nsw i32 %.01623, 1
  %32 = shl nuw i32 1, %.01623
  %33 = add nsw i32 %32, %.01424
  br label %8

34:                                               ; preds = %refill.exit.i
  %.not18 = icmp eq i32 %.01623, 0
  br i1 %.not18, label %63, label %.lr.ph

._crit_edge:                                      ; preds = %get_cabac_bypass.exit22
  %35 = add nsw i32 %61, %.01424
  br label %63

.lr.ph:                                           ; preds = %34, %get_cabac_bypass.exit22
  %36 = phi i32 [ %60, %get_cabac_bypass.exit22 ], [ %28, %34 ]
  %.026 = phi i32 [ %62, %get_cabac_bypass.exit22 ], [ 0, %34 ]
  %.01325 = phi i32 [ %61, %get_cabac_bypass.exit22 ], [ 0, %34 ]
  %37 = shl i32 %.01325, 1
  %38 = shl nsw i32 %36, 1
  store i32 %38, ptr %0, align 8, !tbaa !70
  %39 = and i32 %36, 32767
  %.not.i19 = icmp eq i32 %39, 0
  br i1 %.not.i19, label %40, label %refill.exit.i20

40:                                               ; preds = %.lr.ph
  %41 = load ptr, ptr %6, align 8, !tbaa !68
  %42 = load i8, ptr %41, align 1, !tbaa !97
  %43 = zext i8 %42 to i32
  %44 = shl nuw nsw i32 %43, 9
  %45 = getelementptr inbounds nuw i8, ptr %41, i64 1
  %46 = load i8, ptr %45, align 1, !tbaa !97
  %47 = zext i8 %46 to i32
  %48 = shl nuw nsw i32 %47, 1
  %49 = or disjoint i32 %48, %44
  %50 = add i32 %38, -65535
  %51 = add i32 %50, %49
  store i32 %51, ptr %0, align 8, !tbaa !70
  %52 = load ptr, ptr %7, align 8, !tbaa !71
  %53 = icmp ult ptr %41, %52
  br i1 %53, label %54, label %refill.exit.i20

54:                                               ; preds = %40
  %55 = getelementptr inbounds nuw i8, ptr %41, i64 2
  store ptr %55, ptr %6, align 8, !tbaa !68
  br label %refill.exit.i20

refill.exit.i20:                                  ; preds = %54, %40, %.lr.ph
  %56 = phi i32 [ %51, %54 ], [ %51, %40 ], [ %38, %.lr.ph ]
  %57 = icmp slt i32 %56, %5
  br i1 %57, label %get_cabac_bypass.exit22, label %58

58:                                               ; preds = %refill.exit.i20
  %59 = sub nsw i32 %56, %5
  store i32 %59, ptr %0, align 8, !tbaa !70
  br label %get_cabac_bypass.exit22

get_cabac_bypass.exit22:                          ; preds = %refill.exit.i20, %58
  %60 = phi i32 [ %59, %58 ], [ %56, %refill.exit.i20 ]
  %.0.i21 = phi i32 [ 1, %58 ], [ 0, %refill.exit.i20 ]
  %61 = or disjoint i32 %.0.i21, %37
  %62 = add nuw nsw i32 %.026, 1
  %exitcond.not = icmp eq i32 %62, %.01623
  br i1 %exitcond.not, label %._crit_edge, label %.lr.ph, !llvm.loop !136

63:                                               ; preds = %._crit_edge, %34
  %.1 = phi i32 [ %35, %._crit_edge ], [ %.01424, %34 ]
  ret i32 %.1
}